target datalayout = "e-m:e-p270:32:32-p271:32:32-p272:64:64-i64:64-i128:128-f80:128-n8:16:32:64-S128"
target triple = "x86_64-pc-linux-gnu"

%struct.AVFormatContext = type { ptr, ptr, ptr, ptr, ptr, i32, i32, ptr, i32, ptr, i32, ptr, ptr, i64, i64, i64, i32, i32, i32, i64, i64, ptr, i32, i32, ptr, i32, i32, i32, i32, ptr, i64, i32, i32, %struct.AVIOInterruptCB, i32, i32, i32, i32, i64, i32, i32, i32, i32, i32, i32, i32, i32, i32, i32, i32, i32, i64, i32, i32, i32, i32, i32, ptr, ptr, ptr, ptr, i32, ptr, ptr, ptr, ptr, i32, ptr, ptr, i64, ptr, ptr, ptr, i64 }
%struct.AVIOInterruptCB = type { ptr, ptr }
%struct.HLSContext = type { ptr, i64, i32, i64, i64, i32, i32, i32, i32, ptr, ptr, i32, i32, i32, i32, i32, i64, i64, ptr, ptr, ptr, ptr, i32, ptr, ptr, ptr, ptr, i32, ptr, [4097 x i8], [4097 x i8], [33 x i8], [33 x i8], ptr, ptr, ptr, ptr, i32, ptr, i32, i32, ptr, i32, ptr, ptr, ptr, i32, i32, ptr, ptr, ptr, i64, i32, ptr, i32, i32 }
%struct.VariantStream = type { i32, i32, i64, ptr, ptr, ptr, ptr, i32, i32, ptr, ptr, ptr, ptr, i32, i32, i32, i32, double, i64, i64, i64, i64, i64, double, i64, i64, i32, i32, i32, i32, i64, double, i64, i64, ptr, ptr, ptr, ptr, ptr, ptr, ptr, ptr, double, [4096 x i8], ptr, ptr, i32, [4097 x i8], [4097 x i8], [33 x i8], [33 x i8], ptr, [128 x i8], i32, i32, i32, i32, ptr, ptr, ptr, ptr, ptr, ptr }
%struct.AVStream = type { ptr, i32, i32, ptr, ptr, %struct.AVRational, i64, i64, i64, i32, i32, %struct.AVRational, ptr, %struct.AVRational, %struct.AVPacket, i32, %struct.AVRational, i32 }
%struct.AVPacket = type { ptr, i64, i64, ptr, i32, i32, i32, ptr, i32, i64, i64, ptr, ptr, %struct.AVRational }
%struct.AVRational = type { i32, i32 }
%struct.AVCodecParameters = type { i32, i32, i32, ptr, i32, ptr, i32, i32, i64, i32, i32, i32, i32, i32, i32, %struct.AVRational, %struct.AVRational, i32, i32, i32, i32, i32, i32, i32, %struct.AVChannelLayout, i32, i32, i32, i32, i32, i32 }
%struct.AVChannelLayout = type { i32, i32, %union.anon.0, ptr }
%union.anon.0 = type { i64 }

@.str.127 = private unnamed_addr constant [104 x i8] c"Your video bitrate is bigger than hls_segment_size, (%ld > %ld), the result maybe not be what you want.\00", align 1
@.str.128 = private unnamed_addr constant [63 x i8] c"Stream HEVC is not hvc1, you should use tag:v hvc1 to set it.\0A\00", align 1

; Function Attrs: nounwind uwtable
define internal i32 @hls_write_header(ptr noundef %0) #0 {
  %2 = alloca i32, align 4
  %3 = alloca ptr, align 8
  %4 = alloca ptr, align 8
  %5 = alloca i32, align 4
  %6 = alloca i32, align 4
  %7 = alloca i32, align 4
  %8 = alloca ptr, align 8
  %9 = alloca i32, align 4
  %10 = alloca i32, align 4
  %11 = alloca ptr, align 8
  %12 = alloca ptr, align 8
  %13 = alloca ptr, align 8
  store ptr %0, ptr %3, align 8, !tbaa !4
  call void @llvm.lifetime.start.p0(i64 8, ptr %4) #15
  %14 = load ptr, ptr %3, align 8, !tbaa !4
  %15 = getelementptr inbounds nuw %struct.AVFormatContext, ptr %14, i32 0, i32 3
  %16 = load ptr, ptr %15, align 8, !tbaa !9
  store ptr %16, ptr %4, align 8, !tbaa !26
  call void @llvm.lifetime.start.p0(i64 4, ptr %5) #15
  call void @llvm.lifetime.start.p0(i64 4, ptr %6) #15
  call void @llvm.lifetime.start.p0(i64 4, ptr %7) #15
  call void @llvm.lifetime.start.p0(i64 8, ptr %8) #15
  store ptr null, ptr %8, align 8, !tbaa !28
  store i32 0, ptr %6, align 4, !tbaa !30
  br label %17

17:                                               ; preds = %221, %1
  %18 = load i32, ptr %6, align 4, !tbaa !30
  %19 = load ptr, ptr %4, align 8, !tbaa !26
  %20 = getelementptr inbounds nuw %struct.HLSContext, ptr %19, i32 0, i32 37
  %21 = load i32, ptr %20, align 8, !tbaa !31
  %22 = icmp ult i32 %18, %21
  br i1 %22, label %23, label %224

23:                                               ; preds = %17
  call void @llvm.lifetime.start.p0(i64 4, ptr %9) #15
  store i32 0, ptr %9, align 4, !tbaa !30
  %24 = load ptr, ptr %4, align 8, !tbaa !26
  %25 = getelementptr inbounds nuw %struct.HLSContext, ptr %24, i32 0, i32 36
  %26 = load ptr, ptr %25, align 8, !tbaa !34
  %27 = load i32, ptr %6, align 4, !tbaa !30
  %28 = sext i32 %27 to i64
  %29 = getelementptr inbounds %struct.VariantStream, ptr %26, i64 %28
  store ptr %29, ptr %8, align 8, !tbaa !28
  %30 = load ptr, ptr %8, align 8, !tbaa !28
  %31 = getelementptr inbounds nuw %struct.VariantStream, ptr %30, i32 0, i32 11
  %32 = load ptr, ptr %31, align 8, !tbaa !35
  %33 = call i32 @avformat_write_header(ptr noundef %32, ptr noundef null)
  store i32 %33, ptr %5, align 4, !tbaa !30
  %34 = load i32, ptr %5, align 4, !tbaa !30
  %35 = icmp slt i32 %34, 0
  br i1 %35, label %36, label %38

36:                                               ; preds = %23
  %37 = load i32, ptr %5, align 4, !tbaa !30
  store i32 %37, ptr %2, align 4
  store i32 1, ptr %10, align 4
  br label %218

38:                                               ; preds = %23
  store i32 0, ptr %7, align 4, !tbaa !30
  br label %39

39:                                               ; preds = %155, %38
  %40 = load i32, ptr %7, align 4, !tbaa !30
  %41 = load ptr, ptr %8, align 8, !tbaa !28
  %42 = getelementptr inbounds nuw %struct.VariantStream, ptr %41, i32 0, i32 54
  %43 = load i32, ptr %42, align 4, !tbaa !39
  %44 = icmp ult i32 %40, %43
  br i1 %44, label %45, label %158

45:                                               ; preds = %39
  call void @llvm.lifetime.start.p0(i64 8, ptr %11) #15
  call void @llvm.lifetime.start.p0(i64 8, ptr %12) #15
  %46 = load ptr, ptr %8, align 8, !tbaa !28
  %47 = getelementptr inbounds nuw %struct.VariantStream, ptr %46, i32 0, i32 51
  %48 = load ptr, ptr %47, align 8, !tbaa !40
  %49 = load i32, ptr %7, align 4, !tbaa !30
  %50 = sext i32 %49 to i64
  %51 = getelementptr inbounds ptr, ptr %48, i64 %50
  %52 = load ptr, ptr %51, align 8, !tbaa !41
  store ptr %52, ptr %12, align 8, !tbaa !41
  %53 = load ptr, ptr %4, align 8, !tbaa !26
  %54 = getelementptr inbounds nuw %struct.HLSContext, ptr %53, i32 0, i32 17
  %55 = load i64, ptr %54, align 8, !tbaa !43
  %56 = icmp sgt i64 %55, 0
  br i1 %56, label %57, label %85

57:                                               ; preds = %45
  %58 = load ptr, ptr %12, align 8, !tbaa !41
  %59 = getelementptr inbounds nuw %struct.AVStream, ptr %58, i32 0, i32 3
  %60 = load ptr, ptr %59, align 8, !tbaa !44
  %61 = getelementptr inbounds nuw %struct.AVCodecParameters, ptr %60, i32 0, i32 0
  %62 = load i32, ptr %61, align 8, !tbaa !51
  %63 = icmp eq i32 %62, 0
  br i1 %63, label %64, label %84

64:                                               ; preds = %57
  %65 = load ptr, ptr %12, align 8, !tbaa !41
  %66 = getelementptr inbounds nuw %struct.AVStream, ptr %65, i32 0, i32 3
  %67 = load ptr, ptr %66, align 8, !tbaa !44
  %68 = getelementptr inbounds nuw %struct.AVCodecParameters, ptr %67, i32 0, i32 8
  %69 = load i64, ptr %68, align 8, !tbaa !54
  %70 = load ptr, ptr %4, align 8, !tbaa !26
  %71 = getelementptr inbounds nuw %struct.HLSContext, ptr %70, i32 0, i32 17
  %72 = load i64, ptr %71, align 8, !tbaa !43
  %73 = icmp sgt i64 %69, %72
  br i1 %73, label %74, label %84

74:                                               ; preds = %64
  %75 = load ptr, ptr %3, align 8, !tbaa !4
  %76 = load ptr, ptr %12, align 8, !tbaa !41
  %77 = getelementptr inbounds nuw %struct.AVStream, ptr %76, i32 0, i32 3
  %78 = load ptr, ptr %77, align 8, !tbaa !44
  %79 = getelementptr inbounds nuw %struct.AVCodecParameters, ptr %78, i32 0, i32 8
  %80 = load i64, ptr %79, align 8, !tbaa !54
  %81 = load ptr, ptr %4, align 8, !tbaa !26
  %82 = getelementptr inbounds nuw %struct.HLSContext, ptr %81, i32 0, i32 17
  %83 = load i64, ptr %82, align 8, !tbaa !43
  call void (ptr, i32, ptr, ...) @av_log(ptr noundef %75, i32 noundef 24, ptr noundef @.str.127, i64 noundef %80, i64 noundef %83)
  br label %84

84:                                               ; preds = %74, %64, %57
  br label %85

85:                                               ; preds = %84, %45
  %86 = load ptr, ptr %12, align 8, !tbaa !41
  %87 = getelementptr inbounds nuw %struct.AVStream, ptr %86, i32 0, i32 3
  %88 = load ptr, ptr %87, align 8, !tbaa !44
  %89 = getelementptr inbounds nuw %struct.AVCodecParameters, ptr %88, i32 0, i32 0
  %90 = load i32, ptr %89, align 8, !tbaa !51
  %91 = icmp ne i32 %90, 3
  br i1 %91, label %92, label %104

92:                                               ; preds = %85
  %93 = load ptr, ptr %8, align 8, !tbaa !28
  %94 = getelementptr inbounds nuw %struct.VariantStream, ptr %93, i32 0, i32 11
  %95 = load ptr, ptr %94, align 8, !tbaa !35
  %96 = getelementptr inbounds nuw %struct.AVFormatContext, ptr %95, i32 0, i32 7
  %97 = load ptr, ptr %96, align 8, !tbaa !55
  %98 = load i32, ptr %7, align 4, !tbaa !30
  %99 = load i32, ptr %9, align 4, !tbaa !30
  %100 = sub nsw i32 %98, %99
  %101 = sext i32 %100 to i64
  %102 = getelementptr inbounds ptr, ptr %97, i64 %101
  %103 = load ptr, ptr %102, align 8, !tbaa !41
  store ptr %103, ptr %11, align 8, !tbaa !41
  br label %121

104:                                              ; preds = %85
  %105 = load ptr, ptr %8, align 8, !tbaa !28
  %106 = getelementptr inbounds nuw %struct.VariantStream, ptr %105, i32 0, i32 12
  %107 = load ptr, ptr %106, align 8, !tbaa !56
  %108 = icmp ne ptr %107, null
  br i1 %108, label %109, label %119

109:                                              ; preds = %104
  %110 = load ptr, ptr %8, align 8, !tbaa !28
  %111 = getelementptr inbounds nuw %struct.VariantStream, ptr %110, i32 0, i32 12
  %112 = load ptr, ptr %111, align 8, !tbaa !56
  %113 = getelementptr inbounds nuw %struct.AVFormatContext, ptr %112, i32 0, i32 7
  %114 = load ptr, ptr %113, align 8, !tbaa !55
  %115 = getelementptr inbounds ptr, ptr %114, i64 0
  %116 = load ptr, ptr %115, align 8, !tbaa !41
  store ptr %116, ptr %11, align 8, !tbaa !41
  %117 = load i32, ptr %9, align 4, !tbaa !30
  %118 = add nsw i32 %117, 1
  store i32 %118, ptr %9, align 4, !tbaa !30
  br label %120

119:                                              ; preds = %104
  store ptr null, ptr %11, align 8, !tbaa !41
  store i32 7, ptr %10, align 4
  br label %152

120:                                              ; preds = %109
  br label %121

121:                                              ; preds = %120, %92
  %122 = load ptr, ptr %12, align 8, !tbaa !41
  %123 = load ptr, ptr %11, align 8, !tbaa !41
  %124 = getelementptr inbounds nuw %struct.AVStream, ptr %123, i32 0, i32 17
  %125 = load i32, ptr %124, align 4, !tbaa !57
  %126 = load ptr, ptr %11, align 8, !tbaa !41
  %127 = getelementptr inbounds nuw %struct.AVStream, ptr %126, i32 0, i32 5
  %128 = getelementptr inbounds nuw %struct.AVRational, ptr %127, i32 0, i32 0
  %129 = load i32, ptr %128, align 8, !tbaa !58
  %130 = load ptr, ptr %11, align 8, !tbaa !41
  %131 = getelementptr inbounds nuw %struct.AVStream, ptr %130, i32 0, i32 5
  %132 = getelementptr inbounds nuw %struct.AVRational, ptr %131, i32 0, i32 1
  %133 = load i32, ptr %132, align 4, !tbaa !59
  call void @avpriv_set_pts_info(ptr noundef %122, i32 noundef %125, i32 noundef %129, i32 noundef %133)
  %134 = load ptr, ptr %12, align 8, !tbaa !41
  %135 = getelementptr inbounds nuw %struct.AVStream, ptr %134, i32 0, i32 3
  %136 = load ptr, ptr %135, align 8, !tbaa !44
  %137 = getelementptr inbounds nuw %struct.AVCodecParameters, ptr %136, i32 0, i32 1
  %138 = load i32, ptr %137, align 4, !tbaa !60
  %139 = icmp eq i32 %138, 173
  br i1 %139, label %140, label %149

140:                                              ; preds = %121
  %141 = load ptr, ptr %12, align 8, !tbaa !41
  %142 = getelementptr inbounds nuw %struct.AVStream, ptr %141, i32 0, i32 3
  %143 = load ptr, ptr %142, align 8, !tbaa !44
  %144 = getelementptr inbounds nuw %struct.AVCodecParameters, ptr %143, i32 0, i32 2
  %145 = load i32, ptr %144, align 8, !tbaa !61
  %146 = icmp ne i32 %145, 828601960
  br i1 %146, label %147, label %149

147:                                              ; preds = %140
  %148 = load ptr, ptr %3, align 8, !tbaa !4
  call void (ptr, i32, ptr, ...) @av_log(ptr noundef %148, i32 noundef 24, ptr noundef @.str.128)
  br label %149

149:                                              ; preds = %147, %140, %121
  %150 = load ptr, ptr %12, align 8, !tbaa !41
  %151 = load ptr, ptr %8, align 8, !tbaa !28
  call void @write_codec_attr(ptr noundef %150, ptr noundef %151)
  store i32 0, ptr %10, align 4
  br label %152

152:                                              ; preds = %149, %119
  call void @llvm.lifetime.end.p0(i64 8, ptr %12) #15
  call void @llvm.lifetime.end.p0(i64 8, ptr %11) #15
  %153 = load i32, ptr %10, align 4
  switch i32 %153, label %227 [
    i32 0, label %154
    i32 7, label %155
  ]

154:                                              ; preds = %152
  br label %155

155:                                              ; preds = %154, %152
  %156 = load i32, ptr %7, align 4, !tbaa !30
  %157 = add nsw i32 %156, 1
  store i32 %157, ptr %7, align 4, !tbaa !30
  br label %39, !llvm.loop !62

158:                                              ; preds = %39
  %159 = load ptr, ptr %8, align 8, !tbaa !28
  %160 = getelementptr inbounds nuw %struct.VariantStream, ptr %159, i32 0, i32 13
  %161 = load i32, ptr %160, align 8, !tbaa !64
  %162 = icmp ne i32 %161, 0
  br i1 %162, label %163, label %217

163:                                              ; preds = %158
  %164 = load ptr, ptr %8, align 8, !tbaa !28
  %165 = getelementptr inbounds nuw %struct.VariantStream, ptr %164, i32 0, i32 58
  %166 = load ptr, ptr %165, align 8, !tbaa !65
  %167 = icmp ne ptr %166, null
  br i1 %167, label %168, label %217

168:                                              ; preds = %163
  store i32 0, ptr %7, align 4, !tbaa !30
  br label %169

169:                                              ; preds = %213, %168
  %170 = load i32, ptr %7, align 4, !tbaa !30
  %171 = load ptr, ptr %4, align 8, !tbaa !26
  %172 = getelementptr inbounds nuw %struct.HLSContext, ptr %171, i32 0, i32 37
  %173 = load i32, ptr %172, align 8, !tbaa !31
  %174 = icmp ult i32 %170, %173
  br i1 %174, label %175, label %216

175:                                              ; preds = %169
  call void @llvm.lifetime.start.p0(i64 8, ptr %13) #15
  %176 = load ptr, ptr %4, align 8, !tbaa !26
  %177 = getelementptr inbounds nuw %struct.HLSContext, ptr %176, i32 0, i32 36
  %178 = load ptr, ptr %177, align 8, !tbaa !34
  %179 = load i32, ptr %7, align 4, !tbaa !30
  %180 = sext i32 %179 to i64
  %181 = getelementptr inbounds %struct.VariantStream, ptr %178, i64 %180
  store ptr %181, ptr %13, align 8, !tbaa !28
  %182 = load ptr, ptr %13, align 8, !tbaa !28
  %183 = getelementptr inbounds nuw %struct.VariantStream, ptr %182, i32 0, i32 13
  %184 = load i32, ptr %183, align 8, !tbaa !64
  %185 = icmp ne i32 %184, 0
  br i1 %185, label %212, label %186

186:                                              ; preds = %175
  %187 = load ptr, ptr %13, align 8, !tbaa !28
  %188 = getelementptr inbounds nuw %struct.VariantStream, ptr %187, i32 0, i32 14
  %189 = load i32, ptr %188, align 4, !tbaa !66
  %190 = icmp ne i32 %189, 0
  br i1 %190, label %212, label %191

191:                                              ; preds = %186
  %192 = load ptr, ptr %13, align 8, !tbaa !28
  %193 = getelementptr inbounds nuw %struct.VariantStream, ptr %192, i32 0, i32 58
  %194 = load ptr, ptr %193, align 8, !tbaa !65
  %195 = icmp ne ptr %194, null
  br i1 %195, label %196, label %212

196:                                              ; preds = %191
  %197 = load ptr, ptr %13, align 8, !tbaa !28
  %198 = getelementptr inbounds nuw %struct.VariantStream, ptr %197, i32 0, i32 58
  %199 = load ptr, ptr %198, align 8, !tbaa !65
  %200 = load ptr, ptr %8, align 8, !tbaa !28
  %201 = getelementptr inbounds nuw %struct.VariantStream, ptr %200, i32 0, i32 58
  %202 = load ptr, ptr %201, align 8, !tbaa !65
  %203 = call i32 @av_strcasecmp(ptr noundef %199, ptr noundef %202)
  %204 = icmp ne i32 %203, 0
  br i1 %204, label %212, label %205

205:                                              ; preds = %196
  %206 = load ptr, ptr %13, align 8, !tbaa !28
  %207 = getelementptr inbounds nuw %struct.VariantStream, ptr %206, i32 0, i32 51
  %208 = load ptr, ptr %207, align 8, !tbaa !40
  %209 = getelementptr inbounds ptr, ptr %208, i64 0
  %210 = load ptr, ptr %209, align 8, !tbaa !41
  %211 = load ptr, ptr %8, align 8, !tbaa !28
  call void @write_codec_attr(ptr noundef %210, ptr noundef %211)
  br label %212

212:                                              ; preds = %205, %196, %191, %186, %175
  call void @llvm.lifetime.end.p0(i64 8, ptr %13) #15
  br label %213

213:                                              ; preds = %212
  %214 = load i32, ptr %7, align 4, !tbaa !30
  %215 = add nsw i32 %214, 1
  store i32 %215, ptr %7, align 4, !tbaa !30
  br label %169, !llvm.loop !67

216:                                              ; preds = %169
  br label %217

217:                                              ; preds = %216, %163, %158
  store i32 0, ptr %10, align 4
  br label %218

218:                                              ; preds = %217, %36
  call void @llvm.lifetime.end.p0(i64 4, ptr %9) #15
  %219 = load i32, ptr %10, align 4
  switch i32 %219, label %225 [
    i32 0, label %220
  ]

220:                                              ; preds = %218
  br label %221

221:                                              ; preds = %220
  %222 = load i32, ptr %6, align 4, !tbaa !30
  %223 = add nsw i32 %222, 1
  store i32 %223, ptr %6, align 4, !tbaa !30
  br label %17, !llvm.loop !68

224:                                              ; preds = %17
  store i32 0, ptr %2, align 4
  store i32 1, ptr %10, align 4
  br label %225

225:                                              ; preds = %224, %218
  call void @llvm.lifetime.end.p0(i64 8, ptr %8) #15
  call void @llvm.lifetime.end.p0(i64 4, ptr %7) #15
  call void @llvm.lifetime.end.p0(i64 4, ptr %6) #15
  call void @llvm.lifetime.end.p0(i64 4, ptr %5) #15
  call void @llvm.lifetime.end.p0(i64 8, ptr %4) #15
  %226 = load i32, ptr %2, align 4
  ret i32 %226

227:                                              ; preds = %152
  unreachable
}