; Function Attrs: nounwind uwtable
define internal range(i32 -2147483648, 1) i32 @hls_write_header(ptr noundef %0) #0 {
  %2 = getelementptr inbounds nuw i8, ptr %0, i64 24
  %3 = load ptr, ptr %2, align 8, !tbaa !4
  %4 = getelementptr inbounds nuw i8, ptr %3, i64 8488
  %5 = getelementptr inbounds nuw i8, ptr %3, i64 8496
  %6 = load i32, ptr %5, align 8, !tbaa !24
  %.not84 = icmp eq i32 %6, 0
  br i1 %.not84, label %.thread, label %.lr.ph81

.lr.ph81:                                         ; preds = %1
  %7 = getelementptr inbounds nuw i8, ptr %3, i64 104
  br label %8

8:                                                ; preds = %.lr.ph81, %.loopexit
  %indvars.iv91 = phi i64 [ 0, %.lr.ph81 ], [ %indvars.iv.next92, %.loopexit ]
  %9 = load ptr, ptr %4, align 8, !tbaa !28
  %10 = getelementptr inbounds nuw %struct.VariantStream, ptr %9, i64 %indvars.iv91
  %11 = getelementptr inbounds nuw i8, ptr %10, i64 72
  %12 = load ptr, ptr %11, align 8, !tbaa !29
  %13 = tail call i32 @avformat_write_header(ptr noundef %12, ptr noundef null) #17
  %14 = icmp sgt i32 %13, -1
  br i1 %14, label %.preheader74, label %.thread

.preheader74:                                     ; preds = %8
  %15 = getelementptr inbounds nuw i8, ptr %10, i64 12812
  %16 = load i32, ptr %15, align 4, !tbaa !34
  %.not85 = icmp eq i32 %16, 0
  br i1 %.not85, label %._crit_edge, label %.lr.ph

.lr.ph:                                           ; preds = %.preheader74
  %17 = getelementptr inbounds nuw i8, ptr %10, i64 12672
  %18 = getelementptr inbounds nuw i8, ptr %10, i64 80
  br label %19

19:                                               ; preds = %.lr.ph, %69
  %indvars.iv = phi i64 [ 0, %.lr.ph ], [ %indvars.iv.next, %69 ]
  %.05576 = phi i32 [ 0, %.lr.ph ], [ %.257, %69 ]
  %20 = load ptr, ptr %17, align 8, !tbaa !35
  %21 = getelementptr inbounds nuw ptr, ptr %20, i64 %indvars.iv
  %22 = load ptr, ptr %21, align 8, !tbaa !36
  %23 = load i64, ptr %7, align 8, !tbaa !38
  %24 = icmp sgt i64 %23, 0
  br i1 %24, label %25, label %35

25:                                               ; preds = %19
  %26 = getelementptr inbounds nuw i8, ptr %22, i64 16
  %27 = load ptr, ptr %26, align 8, !tbaa !39
  %28 = load i32, ptr %27, align 8, !tbaa !46
  %29 = icmp eq i32 %28, 0
  br i1 %29, label %30, label %35

30:                                               ; preds = %25
  %31 = getelementptr inbounds nuw i8, ptr %27, i64 48
  %32 = load i64, ptr %31, align 8, !tbaa !49
  %33 = icmp sgt i64 %32, %23
  br i1 %33, label %34, label %35

34:                                               ; preds = %30
  tail call void (ptr, i32, ptr, ...) @av_log(ptr noundef %0, i32 noundef 24, ptr noundef nonnull @.str.127, i64 noundef %32, i64 noundef %23) #17
  br label %35

35:                                               ; preds = %25, %30, %34, %19
  %36 = getelementptr inbounds nuw i8, ptr %22, i64 16
  %37 = load ptr, ptr %36, align 8, !tbaa !39
  %38 = load i32, ptr %37, align 8, !tbaa !46
  %.not70 = icmp eq i32 %38, 3
  br i1 %.not70, label %47, label %39

39:                                               ; preds = %35
  %40 = load ptr, ptr %11, align 8, !tbaa !29
  %41 = getelementptr inbounds nuw i8, ptr %40, i64 48
  %42 = load ptr, ptr %41, align 8, !tbaa !50
  %43 = trunc nuw nsw i64 %indvars.iv to i32
  %44 = sub nsw i32 %43, %.05576
  %45 = sext i32 %44 to i64
  %46 = getelementptr inbounds ptr, ptr %42, i64 %45
  br label %53

47:                                               ; preds = %35
  %48 = load ptr, ptr %18, align 8, !tbaa !51
  %.not71 = icmp eq ptr %48, null
  br i1 %.not71, label %69, label %49

49:                                               ; preds = %47
  %50 = getelementptr inbounds nuw i8, ptr %48, i64 48
  %51 = load ptr, ptr %50, align 8, !tbaa !50
  %52 = add nsw i32 %.05576, 1
  br label %53

53:                                               ; preds = %49, %39
  %.156 = phi i32 [ %.05576, %39 ], [ %52, %49 ]
  %.053.in = phi ptr [ %46, %39 ], [ %51, %49 ]
  %.053 = load ptr, ptr %.053.in, align 8, !tbaa !36
  %54 = getelementptr inbounds nuw i8, ptr %.053, i64 212
  %55 = load i32, ptr %54, align 4, !tbaa !52
  %56 = getelementptr inbounds nuw i8, ptr %.053, i64 32
  %57 = load i32, ptr %56, align 8, !tbaa !53
  %58 = getelementptr inbounds nuw i8, ptr %.053, i64 36
  %59 = load i32, ptr %58, align 4, !tbaa !54
  tail call void @avpriv_set_pts_info(ptr noundef nonnull %22, i32 noundef %55, i32 noundef %57, i32 noundef %59) #17
  %60 = load ptr, ptr %36, align 8, !tbaa !39
  %61 = getelementptr inbounds nuw i8, ptr %60, i64 4
  %62 = load i32, ptr %61, align 4, !tbaa !55
  %63 = icmp eq i32 %62, 173
  br i1 %63, label %64, label %68

64:                                               ; preds = %53
  %65 = getelementptr inbounds nuw i8, ptr %60, i64 8
  %66 = load i32, ptr %65, align 8, !tbaa !56
  %.not72 = icmp eq i32 %66, 828601960
  br i1 %.not72, label %68, label %67

67:                                               ; preds = %64
  tail call void (ptr, i32, ptr, ...) @av_log(ptr noundef %0, i32 noundef 24, ptr noundef nonnull @.str.128) #17
  br label %68

68:                                               ; preds = %67, %64, %53
  tail call fastcc void @write_codec_attr(ptr noundef nonnull %22, ptr noundef nonnull %10)
  br label %69

69:                                               ; preds = %47, %68
  %.257 = phi i32 [ %.156, %68 ], [ %.05576, %47 ]
  %indvars.iv.next = add nuw nsw i64 %indvars.iv, 1
  %70 = load i32, ptr %15, align 4, !tbaa !34
  %71 = zext i32 %70 to i64
  %72 = icmp samesign ult i64 %indvars.iv.next, %71
  br i1 %72, label %19, label %._crit_edge, !llvm.loop !57

._crit_edge:                                      ; preds = %69, %.preheader74
  %73 = getelementptr inbounds nuw i8, ptr %10, i64 88
  %74 = load i32, ptr %73, align 8, !tbaa !59
  %.not = icmp eq i32 %74, 0
  br i1 %.not, label %._crit_edge..loopexit_crit_edge, label %75

._crit_edge..loopexit_crit_edge:                  ; preds = %._crit_edge
  %.pre = load i32, ptr %5, align 8, !tbaa !24
  br label %.loopexit

75:                                               ; preds = %._crit_edge
  %76 = getelementptr inbounds nuw i8, ptr %10, i64 12832
  %77 = load ptr, ptr %76, align 8, !tbaa !60
  %.not65 = icmp eq ptr %77, null
  %.pre94 = load i32, ptr %5, align 8, !tbaa !24
  br i1 %.not65, label %.loopexit, label %.preheader

.preheader:                                       ; preds = %75
  %.not86 = icmp eq i32 %.pre94, 0
  br i1 %.not86, label %.loopexit, label %.lr.ph78

.lr.ph78:                                         ; preds = %.preheader, %95
  %indvars.iv88 = phi i64 [ %indvars.iv.next89, %95 ], [ 0, %.preheader ]
  %78 = load ptr, ptr %4, align 8, !tbaa !28
  %79 = getelementptr inbounds nuw %struct.VariantStream, ptr %78, i64 %indvars.iv88
  %80 = getelementptr inbounds nuw i8, ptr %79, i64 88
  %81 = load i32, ptr %80, align 8, !tbaa !59
  %.not66 = icmp eq i32 %81, 0
  br i1 %.not66, label %82, label %95

82:                                               ; preds = %.lr.ph78
  %83 = getelementptr inbounds nuw i8, ptr %79, i64 92
  %84 = load i32, ptr %83, align 4, !tbaa !61
  %.not67 = icmp eq i32 %84, 0
  br i1 %.not67, label %85, label %95

85:                                               ; preds = %82
  %86 = getelementptr inbounds nuw i8, ptr %79, i64 12832
  %87 = load ptr, ptr %86, align 8, !tbaa !60
  %.not68 = icmp eq ptr %87, null
  br i1 %.not68, label %95, label %88

88:                                               ; preds = %85
  %89 = load ptr, ptr %76, align 8, !tbaa !60
  %90 = tail call i32 @av_strcasecmp(ptr noundef nonnull %87, ptr noundef %89) #17
  %.not69 = icmp eq i32 %90, 0
  br i1 %.not69, label %91, label %95

91:                                               ; preds = %88
  %92 = getelementptr inbounds nuw i8, ptr %79, i64 12672
  %93 = load ptr, ptr %92, align 8, !tbaa !35
  %94 = load ptr, ptr %93, align 8, !tbaa !36
  tail call fastcc void @write_codec_attr(ptr noundef %94, ptr noundef nonnull %10)
  br label %95

95:                                               ; preds = %91, %88, %85, %82, %.lr.ph78
  %indvars.iv.next89 = add nuw nsw i64 %indvars.iv88, 1
  %96 = load i32, ptr %5, align 8, !tbaa !24
  %97 = zext i32 %96 to i64
  %98 = icmp samesign ult i64 %indvars.iv.next89, %97
  br i1 %98, label %.lr.ph78, label %.loopexit, !llvm.loop !62

.loopexit:                                        ; preds = %95, %._crit_edge..loopexit_crit_edge, %.preheader, %75
  %99 = phi i32 [ %.pre, %._crit_edge..loopexit_crit_edge ], [ 0, %.preheader ], [ %.pre94, %75 ], [ %96, %95 ]
  %indvars.iv.next92 = add nuw nsw i64 %indvars.iv91, 1
  %100 = zext i32 %99 to i64
  %101 = icmp samesign ult i64 %indvars.iv.next92, %100
  br i1 %101, label %8, label %.thread, !llvm.loop !63

.thread:                                          ; preds = %.loopexit, %8, %1
  %.2 = phi i32 [ 0, %1 ], [ %13, %8 ], [ 0, %.loopexit ]
  ret i32 %.2
}